target datalayout = "e-m:e-p270:32:32-p271:32:32-p272:64:64-i64:64-i128:128-f80:128-n8:16:32:64-S128"
target triple = "x86_64-pc-linux-gnu"

%"class.std::__cxx11::basic_string" = type { %"struct.std::__cxx11::basic_string<char>::_Alloc_hider", i64, %union.anon }
%"struct.std::__cxx11::basic_string<char>::_Alloc_hider" = type { ptr }
%union.anon = type { i64, [8 x i8] }
%"class.cv::WBaseStream" = type { ptr, ptr, ptr, ptr, i32, i32, ptr, i8, ptr }

@.str.12 = private unnamed_addr constant [3 x i8] c"wb\00", align 1

; Function Attrs: noinline noreturn nounwind uwtable
define linkonce_odr hidden void @__clang_call_terminate(ptr noundef %0) #3 comdat {
  %2 = call ptr @__cxa_begin_catch(ptr %0) #17
  call void @_ZSt9terminatev() #16
  unreachable
}

; Function Attrs: mustprogress nounwind uwtable
define available_externally noundef ptr @_ZNKSt7__cxx1112basic_stringIcSt11char_traitsIcESaIcEE7_M_dataEv(ptr noundef nonnull align 8 dereferenceable(32) %0) #0 align 2 {
  %2 = alloca ptr, align 8
  store ptr %0, ptr %2, align 8, !tbaa !30
  %3 = load ptr, ptr %2, align 8
  %4 = getelementptr inbounds nuw %"class.std::__cxx11::basic_string", ptr %3, i32 0, i32 0
  %5 = getelementptr inbounds nuw %"struct.std::__cxx11::basic_string<char>::_Alloc_hider", ptr %4, i32 0, i32 0
  %6 = load ptr, ptr %5, align 8, !tbaa !81
  ret ptr %6
}

; Function Attrs: mustprogress nounwind uwtable
define available_externally noundef ptr @_ZNKSt7__cxx1112basic_stringIcSt11char_traitsIcESaIcEE5c_strEv(ptr noundef nonnull align 8 dereferenceable(32) %0) #0 align 2 personality ptr @__gxx_personality_v0 {
  %2 = alloca ptr, align 8
  store ptr %0, ptr %2, align 8, !tbaa !30
  %3 = load ptr, ptr %2, align 8
  %4 = invoke noundef ptr @_ZNKSt7__cxx1112basic_stringIcSt11char_traitsIcESaIcEE7_M_dataEv(ptr noundef nonnull align 8 dereferenceable(32) %3)
          to label %5 unwind label %6

5:                                                ; preds = %1
  ret ptr %4

6:                                                ; preds = %1
  %7 = landingpad { ptr, i32 }
          catch ptr null
  %8 = extractvalue { ptr, i32 } %7, 0
  call void @__clang_call_terminate(ptr %8) #16
  unreachable
}

; Function Attrs: mustprogress uwtable
define hidden noundef zeroext i1 @_ZN2cv11WBaseStream4openERKNSt7__cxx1112basic_stringIcSt11char_traitsIcESaIcEEE(ptr noundef nonnull align 8 dereferenceable(64) %0, ptr noundef nonnull align 8 dereferenceable(32) %1) unnamed_addr #1 align 2 {
  %3 = alloca ptr, align 8
  %4 = alloca ptr, align 8
  store ptr %0, ptr %3, align 8, !tbaa !59
  store ptr %1, ptr %4, align 8, !tbaa !30
  %5 = load ptr, ptr %3, align 8
  %6 = load ptr, ptr %5, align 8, !tbaa !21
  %7 = getelementptr inbounds ptr, ptr %6, i64 4
  %8 = load ptr, ptr %7, align 8
  call void %8(ptr noundef nonnull align 8 dereferenceable(64) %5)
  %9 = load ptr, ptr %5, align 8, !tbaa !21
  %10 = getelementptr inbounds ptr, ptr %9, i64 7
  %11 = load ptr, ptr %10, align 8
  call void %11(ptr noundef nonnull align 8 dereferenceable(64) %5)
  %12 = load ptr, ptr %4, align 8, !tbaa !30
  %13 = call noundef ptr @_ZNKSt7__cxx1112basic_stringIcSt11char_traitsIcESaIcEE5c_strEv(ptr noundef nonnull align 8 dereferenceable(32) %12) #17
  %14 = call noalias ptr @fopen(ptr noundef %13, ptr noundef @.str.12)
  %15 = getelementptr inbounds nuw %"class.cv::WBaseStream", ptr %5, i32 0, i32 6
  store ptr %14, ptr %15, align 8, !tbaa !66
  %16 = getelementptr inbounds nuw %"class.cv::WBaseStream", ptr %5, i32 0, i32 6
  %17 = load ptr, ptr %16, align 8, !tbaa !66
  %18 = icmp ne ptr %17, null
  br i1 %18, label %19, label %25

19:                                               ; preds = %2
  %20 = getelementptr inbounds nuw %"class.cv::WBaseStream", ptr %5, i32 0, i32 7
  store i8 1, ptr %20, align 8, !tbaa !69
  %21 = getelementptr inbounds nuw %"class.cv::WBaseStream", ptr %5, i32 0, i32 5
  store i32 0, ptr %21, align 4, !tbaa !67
  %22 = getelementptr inbounds nuw %"class.cv::WBaseStream", ptr %5, i32 0, i32 1
  %23 = load ptr, ptr %22, align 8, !tbaa !65
  %24 = getelementptr inbounds nuw %"class.cv::WBaseStream", ptr %5, i32 0, i32 3
  store ptr %23, ptr %24, align 8, !tbaa !61
  br label %25

25:                                               ; preds = %19, %2
  %26 = getelementptr inbounds nuw %"class.cv::WBaseStream", ptr %5, i32 0, i32 6
  %27 = load ptr, ptr %26, align 8, !tbaa !66
  %28 = icmp ne ptr %27, null
  ret i1 %28
}