; Function Attrs: mustprogress uwtable
define hidden noundef zeroext i1 @_ZN2cv11WBaseStream4openERKNSt7__cxx1112basic_stringIcSt11char_traitsIcESaIcEEE(ptr noundef nonnull align 8 dereferenceable(64) %0, ptr noundef nonnull readonly align 8 captures(none) dereferenceable(32) %1) unnamed_addr #1 align 2 personality ptr @__gxx_personality_v0 {
  %3 = load ptr, ptr %0, align 8, !tbaa !19
  %4 = getelementptr inbounds nuw i8, ptr %3, i64 32
  %5 = load ptr, ptr %4, align 8
  tail call void %5(ptr noundef nonnull align 8 dereferenceable(64) %0)
  %6 = load ptr, ptr %0, align 8, !tbaa !19
  %7 = getelementptr inbounds nuw i8, ptr %6, i64 56
  %8 = load ptr, ptr %7, align 8
  tail call void %8(ptr noundef nonnull align 8 dereferenceable(64) %0)
  %9 = load ptr, ptr %1, align 8, !tbaa !23
  %10 = tail call noalias ptr @fopen(ptr noundef %9, ptr noundef nonnull @.str.12)
  %11 = getelementptr inbounds nuw i8, ptr %0, i64 40
  store ptr %10, ptr %11, align 8, !tbaa !46
  %.not = icmp eq ptr %10, null
  br i1 %.not, label %18, label %12

12:                                               ; preds = %2
  %13 = getelementptr inbounds nuw i8, ptr %0, i64 48
  store i8 1, ptr %13, align 8, !tbaa !51
  %14 = getelementptr inbounds nuw i8, ptr %0, i64 36
  store i32 0, ptr %14, align 4, !tbaa !49
  %15 = getelementptr inbounds nuw i8, ptr %0, i64 8
  %16 = load ptr, ptr %15, align 8, !tbaa !53
  %17 = getelementptr inbounds nuw i8, ptr %0, i64 24
  store ptr %16, ptr %17, align 8, !tbaa !55
  br label %18

18:                                               ; preds = %12, %2
  %19 = icmp ne ptr %10, null
  ret i1 %19
}